; Function Attrs: mustprogress nounwind uwtable
define hidden void @_ZN20ShenandoahHeapRegion21oop_iterate_humongousEP17OopIterateClosure(ptr nocapture noundef nonnull readonly align 8 dereferenceable(96) %0, ptr noundef %1) local_unnamed_addr #0 align 2 {
  %3 = load ptr, ptr @_ZN8Universe14_collectedHeapE, align 8
  %4 = load i64, ptr %0, align 8
  %5 = getelementptr inbounds i8, ptr %3, i64 544
  %6 = getelementptr inbounds i8, ptr %3, i64 552
  br label %_ZNK14ShenandoahHeap10get_regionEm.exit.i

_ZNK14ShenandoahHeap10get_regionEm.exit.i:        ; preds = %_ZNK14ShenandoahHeap10get_regionEm.exit.i.backedge, %2
  %.05.i = phi i64 [ %4, %2 ], [ %10, %_ZNK14ShenandoahHeap10get_regionEm.exit.i.backedge ]
  %.0.i = phi ptr [ %0, %2 ], [ %.0.i.be, %_ZNK14ShenandoahHeap10get_regionEm.exit.i.backedge ]
  %7 = getelementptr inbounds i8, ptr %.0.i, i64 40
  %8 = load i32, ptr %7, align 8
  switch i32 %8, label %9 [
    i32 5, label %_ZNK20ShenandoahHeapRegion22humongous_start_regionEv.exit
    i32 3, label %_ZNK20ShenandoahHeapRegion22humongous_start_regionEv.exit
  ]

9:                                                ; preds = %_ZNK14ShenandoahHeap10get_regionEm.exit.i
  %10 = add i64 %.05.i, -1
  %11 = load i64, ptr %5, align 8
  %12 = icmp ugt i64 %11, %10
  br i1 %12, label %13, label %_ZNK14ShenandoahHeap10get_regionEm.exit.i.backedge

13:                                               ; preds = %9
  %14 = load ptr, ptr %6, align 8
  %15 = getelementptr inbounds ptr, ptr %14, i64 %10
  %16 = load ptr, ptr %15, align 8
  br label %_ZNK14ShenandoahHeap10get_regionEm.exit.i.backedge

_ZNK14ShenandoahHeap10get_regionEm.exit.i.backedge: ; preds = %13, %9
  %.0.i.be = phi ptr [ %16, %13 ], [ null, %9 ]
  br label %_ZNK14ShenandoahHeap10get_regionEm.exit.i, !llvm.loop !6

_ZNK20ShenandoahHeapRegion22humongous_start_regionEv.exit: ; preds = %_ZNK14ShenandoahHeap10get_regionEm.exit.i, %_ZNK14ShenandoahHeap10get_regionEm.exit.i
  %17 = getelementptr inbounds i8, ptr %.0.i, i64 8
  %18 = load ptr, ptr %17, align 8
  %19 = getelementptr inbounds i8, ptr %0, i64 8
  %20 = load ptr, ptr %19, align 8
  %21 = getelementptr inbounds i8, ptr %0, i64 48
  %22 = load ptr, ptr %21, align 8
  %23 = load i8, ptr @UseCompressedClassPointers, align 1
  %24 = trunc i8 %23 to i1
  %25 = getelementptr inbounds i8, ptr %18, i64 8
  br i1 %24, label %26, label %36

26:                                               ; preds = %_ZNK20ShenandoahHeapRegion22humongous_start_regionEv.exit
  %27 = load i32, ptr %25, align 8
  %28 = load ptr, ptr @_ZN23CompressedKlassPointers5_baseE, align 8
  %29 = load i32, ptr @_ZN23CompressedKlassPointers6_shiftE, align 4
  %30 = ptrtoint ptr %28 to i64
  %31 = zext i32 %27 to i64
  %32 = zext nneg i32 %29 to i64
  %33 = shl i64 %31, %32
  %34 = add i64 %33, %30
  %35 = inttoptr i64 %34 to ptr
  br label %_ZN7oopDesc11oop_iterateI17OopIterateClosureEEvPT_9MemRegion.exit

36:                                               ; preds = %_ZNK20ShenandoahHeapRegion22humongous_start_regionEv.exit
  %37 = load ptr, ptr %25, align 8
  br label %_ZN7oopDesc11oop_iterateI17OopIterateClosureEEvPT_9MemRegion.exit

_ZN7oopDesc11oop_iterateI17OopIterateClosureEEvPT_9MemRegion.exit: ; preds = %26, %36
  %.0.i.i4 = phi ptr [ %35, %26 ], [ %37, %36 ]
  %38 = ptrtoint ptr %22 to i64
  %39 = ptrtoint ptr %20 to i64
  %40 = sub i64 %38, %39
  %41 = lshr i64 %40, 3
  %42 = getelementptr inbounds i8, ptr %.0.i.i4, i64 12
  %43 = load i32, ptr %42, align 4
  %44 = sext i32 %43 to i64
  %45 = getelementptr inbounds [7 x ptr], ptr @_ZN28OopOopIterateBoundedDispatchI17OopIterateClosureE6_tableE, i64 0, i64 %44
  %46 = load ptr, ptr %45, align 8
  tail call void %46(ptr noundef %1, ptr noundef nonnull %18, ptr noundef %.0.i.i4, ptr %20, i64 %41) #18
  ret void
}